; Function Attrs: nounwind uwtable
define internal fastcc ptr @copy_decl_list(ptr noundef %0, ptr noundef readonly %1) unnamed_addr #0 {
  %.not = icmp eq ptr %1, null
  br i1 %.not, label %._crit_edge, label %3

3:                                                ; preds = %2
  %4 = getelementptr inbounds i8, ptr %1, i64 -8
  %5 = load i32, ptr %4, align 4
  %.not27 = icmp eq i32 %5, 0
  br i1 %.not27, label %._crit_edge, label %.lr.ph.preheader

.lr.ph.preheader:                                 ; preds = %3
  %wide.trip.count = zext i32 %5 to i64
  br label %.lr.ph

.lr.ph:                                           ; preds = %.lr.ph.preheader, %29
  %indvars.iv = phi i64 [ 0, %.lr.ph.preheader ], [ %indvars.iv.next, %29 ]
  %.02125 = phi ptr [ null, %.lr.ph.preheader ], [ %32, %29 ]
  %.not.i = icmp eq ptr %.02125, null
  br i1 %.not.i, label %6, label %9

6:                                                ; preds = %.lr.ph
  %7 = tail call ptr @calloc_arena(i64 noundef 72) #5
  %8 = getelementptr inbounds i8, ptr %7, i64 4
  store i32 8, ptr %8, align 4
  br label %11

9:                                                ; preds = %.lr.ph
  %10 = getelementptr inbounds i8, ptr %.02125, i64 -8
  %.phi.trans.insert.i = getelementptr inbounds i8, ptr %.02125, i64 -4
  %.pre.i = load i32, ptr %.phi.trans.insert.i, align 4
  br label %11

11:                                               ; preds = %9, %6
  %12 = phi i32 [ %.pre.i, %9 ], [ 8, %6 ]
  %.0.i = phi ptr [ %10, %9 ], [ %7, %6 ]
  %13 = load i32, ptr %.0.i, align 4
  %14 = icmp eq i32 %13, %12
  br i1 %14, label %15, label %29

15:                                               ; preds = %11
  %16 = getelementptr inbounds i8, ptr %.0.i, i64 4
  %17 = shl i32 %12, 1
  %18 = zext i32 %17 to i64
  %19 = shl nuw nsw i64 %18, 3
  %20 = or disjoint i64 %19, 8
  %21 = tail call ptr @calloc_arena(i64 noundef %20) #5
  %22 = getelementptr inbounds i8, ptr %21, i64 4
  store i32 %17, ptr %22, align 4
  %23 = load i32, ptr %16, align 4
  %24 = zext i32 %23 to i64
  %25 = shl nuw nsw i64 %24, 3
  %26 = add nuw nsw i64 %25, 8
  tail call void @llvm.memcpy.p0.p0.i64(ptr noundef nonnull align 4 dereferenceable(1) %21, ptr noundef nonnull align 4 dereferenceable(1) %.0.i, i64 %26, i1 false)
  %27 = load i32, ptr %22, align 4
  %28 = shl i32 %27, 1
  store i32 %28, ptr %22, align 4
  %.pre18.i = load i32, ptr %21, align 4
  br label %29

29:                                               ; preds = %11, %15
  %30 = phi i32 [ %.pre18.i, %15 ], [ %13, %11 ]
  %.1.i = phi ptr [ %21, %15 ], [ %.0.i, %11 ]
  %31 = add i32 %30, 1
  store i32 %31, ptr %.1.i, align 4
  %32 = getelementptr inbounds i8, ptr %.1.i, i64 8
  %33 = getelementptr inbounds ptr, ptr %1, i64 %indvars.iv
  %34 = load ptr, ptr %33, align 8
  %35 = tail call fastcc ptr @copy_decl(ptr noundef %0, ptr noundef %34)
  %36 = load i32, ptr %.1.i, align 4
  %37 = add i32 %36, -1
  %38 = zext i32 %37 to i64
  %39 = getelementptr inbounds ptr, ptr %32, i64 %38
  store ptr %35, ptr %39, align 8
  %indvars.iv.next = add nuw nsw i64 %indvars.iv, 1
  %exitcond.not = icmp eq i64 %indvars.iv.next, %wide.trip.count
  br i1 %exitcond.not, label %._crit_edge, label %.lr.ph, !llvm.loop !7

._crit_edge:                                      ; preds = %29, %2, %3
  %.021.lcssa = phi ptr [ null, %3 ], [ null, %2 ], [ %32, %29 ]
  ret ptr %.021.lcssa
}